target datalayout = "e-m:e-p270:32:32-p271:32:32-p272:64:64-i64:64-i128:128-f80:128-n8:16:32:64-S128"
target triple = "x86_64-pc-linux-gnu"

; Function Attrs: mustprogress uwtable
define hidden void @_ZN7mitsuba13rtcOccluded32EPKiP10RTCSceneTyP19RTCIntersectContextPj(ptr noundef %0, ptr noundef %1, ptr noundef %2, ptr noundef %3) #0 {
  %5 = alloca ptr, align 8
  %6 = alloca ptr, align 8
  %7 = alloca ptr, align 8
  %8 = alloca ptr, align 8
  %9 = alloca i64, align 8
  %10 = alloca i64, align 8
  %11 = alloca [192 x i32], align 64
  %12 = alloca i64, align 8
  %13 = alloca ptr, align 8
  %14 = alloca ptr, align 8
  %15 = alloca i64, align 8
  store ptr %0, ptr %5, align 8
  store ptr %1, ptr %6, align 8
  store ptr %2, ptr %7, align 8
  store ptr %3, ptr %8, align 8
  store i64 16, ptr %9, align 8
  store i64 2, ptr %10, align 8
  store i64 0, ptr %12, align 8
  br label %16

16:                                               ; preds = %53, %4
  %17 = load i64, ptr %12, align 8
  %18 = icmp ult i64 %17, 2
  br i1 %18, label %19, label %56

19:                                               ; preds = %16
  %20 = load ptr, ptr %8, align 8
  %21 = load i64, ptr %12, align 8
  %22 = mul i64 16, %21
  %23 = getelementptr inbounds i32, ptr %20, i64 %22
  store ptr %23, ptr %13, align 8
  %24 = getelementptr inbounds [192 x i32], ptr %11, i64 0, i64 0
  store ptr %24, ptr %14, align 8
  store i64 0, ptr %15, align 8
  br label %25

25:                                               ; preds = %35, %19
  %26 = load i64, ptr %15, align 8
  %27 = icmp ult i64 %26, 12
  br i1 %27, label %28, label %38

28:                                               ; preds = %25
  %29 = load ptr, ptr %14, align 8
  %30 = load ptr, ptr %13, align 8
  call void @llvm.memcpy.p0.p0.i64(ptr align 4 %29, ptr align 4 %30, i64 64, i1 false)
  %31 = load ptr, ptr %13, align 8
  %32 = getelementptr inbounds i32, ptr %31, i64 32
  store ptr %32, ptr %13, align 8
  %33 = load ptr, ptr %14, align 8
  %34 = getelementptr inbounds i32, ptr %33, i64 16
  store ptr %34, ptr %14, align 8
  br label %35

35:                                               ; preds = %28
  %36 = load i64, ptr %15, align 8
  %37 = add i64 %36, 1
  store i64 %37, ptr %15, align 8
  br label %25, !llvm.loop !4

38:                                               ; preds = %25
  %39 = load ptr, ptr %5, align 8
  %40 = load i64, ptr %12, align 8
  %41 = mul i64 16, %40
  %42 = getelementptr inbounds i32, ptr %39, i64 %41
  %43 = load ptr, ptr %6, align 8
  %44 = load ptr, ptr %7, align 8
  %45 = getelementptr inbounds [192 x i32], ptr %11, i64 0, i64 0
  call void @rtcOccluded16(ptr noundef %42, ptr noundef %43, ptr noundef %44, ptr noundef %45)
  %46 = load ptr, ptr %8, align 8
  %47 = load i64, ptr %12, align 8
  %48 = add i64 %47, 16
  %49 = mul i64 16, %48
  %50 = getelementptr inbounds i32, ptr %46, i64 %49
  %51 = getelementptr inbounds [192 x i32], ptr %11, i64 0, i64 0
  %52 = getelementptr inbounds i32, ptr %51, i64 128
  call void @llvm.memcpy.p0.p0.i64(ptr align 4 %50, ptr align 4 %52, i64 64, i1 false)
  br label %53

53:                                               ; preds = %38
  %54 = load i64, ptr %12, align 8
  %55 = add i64 %54, 1
  store i64 %55, ptr %12, align 8
  br label %16, !llvm.loop !6

56:                                               ; preds = %16
  ret void
}