; Function Attrs: mustprogress uwtable
define hidden void @_ZN7mitsuba13rtcOccluded32EPKiP10RTCSceneTyP19RTCIntersectContextPj(ptr noundef %0, ptr noundef %1, ptr noundef %2, ptr nocapture noundef %3) local_unnamed_addr #0 {
  %5 = alloca [192 x i32], align 64
  %6 = getelementptr inbounds i8, ptr %5, i64 512
  br label %7

7:                                                ; preds = %4, %14
  %8 = phi i1 [ true, %4 ], [ false, %14 ]
  %.01721 = phi i64 [ 0, %4 ], [ 16, %14 ]
  %9 = getelementptr inbounds i32, ptr %3, i64 %.01721
  br label %10

10:                                               ; preds = %7, %10
  %.020 = phi i64 [ 0, %7 ], [ %13, %10 ]
  %.01519 = phi ptr [ %5, %7 ], [ %12, %10 ]
  %.01618 = phi ptr [ %9, %7 ], [ %11, %10 ]
  call void @llvm.memcpy.p0.p0.i64(ptr noundef nonnull align 4 dereferenceable(64) %.01519, ptr noundef nonnull align 4 dereferenceable(64) %.01618, i64 64, i1 false)
  %11 = getelementptr inbounds i8, ptr %.01618, i64 128
  %12 = getelementptr inbounds i8, ptr %.01519, i64 64
  %13 = add nuw nsw i64 %.020, 1
  %exitcond.not = icmp eq i64 %13, 12
  br i1 %exitcond.not, label %14, label %10, !llvm.loop !4

14:                                               ; preds = %10
  %15 = getelementptr inbounds i32, ptr %0, i64 %.01721
  call void @rtcOccluded16(ptr noundef %15, ptr noundef %1, ptr noundef %2, ptr noundef nonnull %5)
  %16 = or disjoint i64 %.01721, 256
  %17 = getelementptr inbounds i32, ptr %3, i64 %16
  call void @llvm.memcpy.p0.p0.i64(ptr noundef nonnull align 4 dereferenceable(64) %17, ptr noundef nonnull align 64 dereferenceable(64) %6, i64 64, i1 false)
  br i1 %8, label %7, label %18, !llvm.loop !6

18:                                               ; preds = %14
  ret void
}